target datalayout = "e-m:e-p270:32:32-p271:32:32-p272:64:64-i64:64-i128:128-f80:128-n8:16:32:64-S128"
target triple = "x86_64-pc-linux-gnu"

%class.LIR_Opr = type { i64 }
%class.BlockListBuilder = type <{ ptr, ptr, %class.BlockList, ptr, %class.GrowableArray.0, %class.ResourceBitMap, %class.ResourceBitMap, %class.GrowableArray.3, i32, i32, i32, [4 x i8] }>
%class.BlockList = type { %class.GrowableArray }
%class.GrowableArray = type { %class.GrowableArrayWithAllocator, %class.GrowableArrayMetadata }
%class.GrowableArrayWithAllocator = type { %class.GrowableArrayView }
%class.GrowableArrayView = type { %class.GrowableArrayBase, ptr }
%class.GrowableArrayBase = type { i32, i32 }
%class.GrowableArrayMetadata = type { i64 }
%class.GrowableArray.0 = type { %class.GrowableArrayWithAllocator.1, %class.GrowableArrayMetadata }
%class.GrowableArrayWithAllocator.1 = type { %class.GrowableArrayView.2 }
%class.GrowableArrayView.2 = type { %class.GrowableArrayBase, ptr }
%class.ResourceBitMap = type { %class.GrowableBitMap }
%class.GrowableBitMap = type { %class.BitMap }
%class.BitMap = type { ptr, i64 }
%class.GrowableArray.3 = type { %class.GrowableArrayWithAllocator.4, %class.GrowableArrayMetadata }
%class.GrowableArrayWithAllocator.4 = type { %class.GrowableArrayView.5 }
%class.GrowableArrayView.5 = type { %class.GrowableArrayBase, ptr }
%class.BlockBegin = type { %class.StateSplit, i32, i32, i32, i32, i32, i32, i32, i32, i32, %class.ResourceBitMap, %class.BlockList, %class.BlockList, ptr, ptr, %class.BlockList, ptr, i32, [4 x i8], %class.Label, ptr, %class.ResourceBitMap, %class.ResourceBitMap, %class.ResourceBitMap, %class.ResourceBitMap, %class.ResourceBitMap, ptr, i32, i32 }
%class.StateSplit = type { %class.Instruction, ptr }
%class.Instruction = type { ptr, i32, i32, i32, ptr, ptr, ptr, %class.LIR_Opr, i32, ptr, ptr, ptr, ptr }
%class.Label = type <{ i32, [4 x i32], i32, ptr, i8, [7 x i8] }>

; Function Attrs: mustprogress nounwind uwtable
define linkonce_odr hidden noundef i64 @_ZN6BitMap23raw_to_words_align_downEm(i64 noundef %0) #1 comdat align 2 {
  %2 = alloca i64, align 8
  store i64 %0, ptr %2, align 8
  %3 = load i64, ptr %2, align 8
  %4 = lshr i64 %3, 6
  ret i64 %4
}

; Function Attrs: mustprogress nounwind uwtable
define linkonce_odr hidden void @_ZNK6BitMap12verify_limitEm(ptr noundef nonnull align 8 dereferenceable(16) %0, i64 noundef %1) #1 comdat align 2 {
  %3 = alloca ptr, align 8
  %4 = alloca i64, align 8
  store ptr %0, ptr %3, align 8
  store i64 %1, ptr %4, align 8
  ret void
}

; Function Attrs: mustprogress nounwind uwtable
define linkonce_odr hidden noundef i64 @_ZNK6BitMap19to_words_align_downEm(ptr noundef nonnull align 8 dereferenceable(16) %0, i64 noundef %1) #1 comdat align 2 {
  %3 = alloca ptr, align 8
  %4 = alloca i64, align 8
  store ptr %0, ptr %3, align 8
  store i64 %1, ptr %4, align 8
  %5 = load ptr, ptr %3, align 8
  %6 = load i64, ptr %4, align 8
  call void @_ZNK6BitMap12verify_limitEm(ptr noundef nonnull align 8 dereferenceable(16) %5, i64 noundef %6)
  %7 = load i64, ptr %4, align 8
  %8 = call noundef i64 @_ZN6BitMap23raw_to_words_align_downEm(i64 noundef %7)
  ret i64 %8
}

; Function Attrs: mustprogress nounwind uwtable
define linkonce_odr hidden noundef ptr @_ZN6BitMap3mapEv(ptr noundef nonnull align 8 dereferenceable(16) %0) #1 comdat align 2 {
  %2 = alloca ptr, align 8
  store ptr %0, ptr %2, align 8
  %3 = load ptr, ptr %2, align 8
  %4 = getelementptr inbounds %class.BitMap, ptr %3, i32 0, i32 0
  %5 = load ptr, ptr %4, align 8
  ret ptr %5
}

; Function Attrs: mustprogress nounwind uwtable
define linkonce_odr hidden noundef i64 @_ZN6BitMap11bit_in_wordEm(i64 noundef %0) #1 comdat align 2 {
  %2 = alloca i64, align 8
  store i64 %0, ptr %2, align 8
  %3 = load i64, ptr %2, align 8
  %4 = and i64 %3, 63
  ret i64 %4
}

; Function Attrs: mustprogress nounwind uwtable
define linkonce_odr hidden noundef ptr @_ZN6BitMap9word_addrEm(ptr noundef nonnull align 8 dereferenceable(16) %0, i64 noundef %1) #1 comdat align 2 {
  %3 = alloca ptr, align 8
  %4 = alloca i64, align 8
  store ptr %0, ptr %3, align 8
  store i64 %1, ptr %4, align 8
  %5 = load ptr, ptr %3, align 8
  %6 = call noundef ptr @_ZN6BitMap3mapEv(ptr noundef nonnull align 8 dereferenceable(16) %5)
  %7 = load i64, ptr %4, align 8
  %8 = call noundef i64 @_ZNK6BitMap19to_words_align_downEm(ptr noundef nonnull align 8 dereferenceable(16) %5, i64 noundef %7)
  %9 = getelementptr inbounds i64, ptr %6, i64 %8
  ret ptr %9
}

; Function Attrs: mustprogress nounwind uwtable
define linkonce_odr hidden noundef i64 @_ZN6BitMap8bit_maskEm(i64 noundef %0) #1 comdat align 2 {
  %2 = alloca i64, align 8
  store i64 %0, ptr %2, align 8
  %3 = load i64, ptr %2, align 8
  %4 = call noundef i64 @_ZN6BitMap11bit_in_wordEm(i64 noundef %3)
  %5 = shl i64 1, %4
  ret i64 %5
}

; Function Attrs: mustprogress nounwind uwtable
define linkonce_odr hidden void @_ZNK6BitMap12verify_indexEm(ptr noundef nonnull align 8 dereferenceable(16) %0, i64 noundef %1) #1 comdat align 2 {
  %3 = alloca ptr, align 8
  %4 = alloca i64, align 8
  store ptr %0, ptr %3, align 8
  store i64 %1, ptr %4, align 8
  ret void
}

; Function Attrs: mustprogress nounwind uwtable
define linkonce_odr hidden void @_ZN6BitMap7set_bitEm(ptr noundef nonnull align 8 dereferenceable(16) %0, i64 noundef %1) #1 comdat align 2 {
  %3 = alloca ptr, align 8
  %4 = alloca i64, align 8
  store ptr %0, ptr %3, align 8
  store i64 %1, ptr %4, align 8
  %5 = load ptr, ptr %3, align 8
  %6 = load i64, ptr %4, align 8
  call void @_ZNK6BitMap12verify_indexEm(ptr noundef nonnull align 8 dereferenceable(16) %5, i64 noundef %6)
  %7 = load i64, ptr %4, align 8
  %8 = call noundef i64 @_ZN6BitMap8bit_maskEm(i64 noundef %7)
  %9 = load i64, ptr %4, align 8
  %10 = call noundef ptr @_ZN6BitMap9word_addrEm(ptr noundef nonnull align 8 dereferenceable(16) %5, i64 noundef %9)
  %11 = load i64, ptr %10, align 8
  %12 = or i64 %11, %8
  store i64 %12, ptr %10, align 8
  ret void
}

; Function Attrs: mustprogress nounwind uwtable
define linkonce_odr hidden noundef nonnull align 8 dereferenceable(16) ptr @_ZN17GrowableArrayViewI14ResourceBitMapE2atEi(ptr noundef nonnull align 8 dereferenceable(16) %0, i32 noundef %1) #1 comdat align 2 {
  %3 = alloca ptr, align 8
  %4 = alloca i32, align 4
  store ptr %0, ptr %3, align 8
  store i32 %1, ptr %4, align 4
  %5 = load ptr, ptr %3, align 8
  %6 = getelementptr inbounds %class.GrowableArrayView.5, ptr %5, i32 0, i32 1
  %7 = load ptr, ptr %6, align 8
  %8 = load i32, ptr %4, align 4
  %9 = sext i32 %8 to i64
  %10 = getelementptr inbounds %class.ResourceBitMap, ptr %7, i64 %9
  ret ptr %10
}

; Function Attrs: mustprogress nounwind uwtable
define linkonce_odr hidden void @_ZN10BlockBegin3setENS_4FlagE(ptr noundef nonnull align 8 dereferenceable(408) %0, i32 noundef %1) #1 comdat align 2 {
  %3 = alloca ptr, align 8
  %4 = alloca i32, align 4
  store ptr %0, ptr %3, align 8
  store i32 %1, ptr %4, align 4
  %5 = load ptr, ptr %3, align 8
  %6 = load i32, ptr %4, align 4
  %7 = getelementptr inbounds %class.BlockBegin, ptr %5, i32 0, i32 8
  %8 = load i32, ptr %7, align 4
  %9 = or i32 %8, %6
  store i32 %9, ptr %7, align 4
  ret void
}

; Function Attrs: mustprogress nounwind uwtable
define linkonce_odr hidden noundef zeroext i1 @_ZNK10BlockBegin6is_setENS_4FlagE(ptr noundef nonnull align 8 dereferenceable(408) %0, i32 noundef %1) #1 comdat align 2 {
  %3 = alloca ptr, align 8
  %4 = alloca i32, align 4
  store ptr %0, ptr %3, align 8
  store i32 %1, ptr %4, align 4
  %5 = load ptr, ptr %3, align 8
  %6 = getelementptr inbounds %class.BlockBegin, ptr %5, i32 0, i32 8
  %7 = load i32, ptr %6, align 4
  %8 = load i32, ptr %4, align 4
  %9 = and i32 %7, %8
  %10 = icmp ne i32 %9, 0
  ret i1 %10
}

; Function Attrs: mustprogress nounwind uwtable
define linkonce_odr hidden noundef i32 @_ZNK16BlockListBuilder10bit_numberEi(ptr noundef nonnull align 8 dereferenceable(140) %0, i32 noundef %1) #1 comdat align 2 {
  %3 = alloca ptr, align 8
  %4 = alloca i32, align 4
  store ptr %0, ptr %3, align 8
  store i32 %1, ptr %4, align 4
  %5 = load ptr, ptr %3, align 8
  %6 = load i32, ptr %4, align 4
  %7 = getelementptr inbounds %class.BlockListBuilder, ptr %5, i32 0, i32 10
  %8 = load i32, ptr %7, align 8
  %9 = sub nsw i32 %6, %8
  ret i32 %9
}

; Function Attrs: mustprogress nounwind uwtable
define linkonce_odr hidden noundef i32 @_ZNK10BlockBegin8block_idEv(ptr noundef nonnull align 8 dereferenceable(408) %0) #1 comdat align 2 {
  %2 = alloca ptr, align 8
  store ptr %0, ptr %2, align 8
  %3 = load ptr, ptr %2, align 8
  %4 = getelementptr inbounds %class.BlockBegin, ptr %3, i32 0, i32 1
  %5 = load i32, ptr %4, align 8
  ret i32 %5
}

; Function Attrs: mustprogress nounwind uwtable
define hidden void @_ZN16BlockListBuilder16make_loop_headerEP10BlockBegin(ptr noundef nonnull align 8 dereferenceable(140) %0, ptr noundef %1) #1 align 2 {
  %3 = alloca ptr, align 8
  %4 = alloca ptr, align 8
  %5 = alloca i32, align 4
  %6 = alloca i32, align 4
  store ptr %0, ptr %3, align 8
  store ptr %1, ptr %4, align 8
  %7 = load ptr, ptr %3, align 8
  %8 = load ptr, ptr %4, align 8
  %9 = call noundef i32 @_ZNK10BlockBegin8block_idEv(ptr noundef nonnull align 8 dereferenceable(408) %8)
  store i32 %9, ptr %5, align 4
  %10 = load i32, ptr %5, align 4
  %11 = call noundef i32 @_ZNK16BlockListBuilder10bit_numberEi(ptr noundef nonnull align 8 dereferenceable(140) %7, i32 noundef %10)
  store i32 %11, ptr %6, align 4
  %12 = load ptr, ptr %4, align 8
  %13 = call noundef zeroext i1 @_ZNK10BlockBegin6is_setENS_4FlagE(ptr noundef nonnull align 8 dereferenceable(408) %12, i32 noundef 4)
  br i1 %13, label %14, label %15

14:                                               ; preds = %2
  br label %28

15:                                               ; preds = %2
  %16 = load ptr, ptr %4, align 8
  %17 = call noundef zeroext i1 @_ZNK10BlockBegin6is_setENS_4FlagE(ptr noundef nonnull align 8 dereferenceable(408) %16, i32 noundef 128)
  br i1 %17, label %27, label %18

18:                                               ; preds = %15
  %19 = load ptr, ptr %4, align 8
  call void @_ZN10BlockBegin3setENS_4FlagE(ptr noundef nonnull align 8 dereferenceable(408) %19, i32 noundef 128)
  %20 = getelementptr inbounds %class.BlockListBuilder, ptr %7, i32 0, i32 7
  %21 = load i32, ptr %6, align 4
  %22 = call noundef nonnull align 8 dereferenceable(16) ptr @_ZN17GrowableArrayViewI14ResourceBitMapE2atEi(ptr noundef nonnull align 8 dereferenceable(16) %20, i32 noundef %21)
  %23 = getelementptr inbounds %class.BlockListBuilder, ptr %7, i32 0, i32 8
  %24 = load i32, ptr %23, align 8
  %25 = add nsw i32 %24, 1
  store i32 %25, ptr %23, align 8
  %26 = sext i32 %24 to i64
  call void @_ZN6BitMap7set_bitEm(ptr noundef nonnull align 8 dereferenceable(16) %22, i64 noundef %26)
  br label %28

27:                                               ; preds = %15
  br label %28

28:                                               ; preds = %27, %18, %14
  ret void
}