; Function Attrs: mustprogress nofree norecurse nosync nounwind willreturn memory(readwrite, inaccessiblemem: none) uwtable
define hidden void @_ZN16BlockListBuilder16make_loop_headerEP10BlockBegin(ptr nocapture noundef nonnull align 8 dereferenceable(140) %0, ptr nocapture noundef %1) local_unnamed_addr #3 align 2 {
  %3 = getelementptr inbounds i8, ptr %1, i64 132
  %4 = load i32, ptr %3, align 4
  %5 = and i32 %4, 132
  %or.cond.not = icmp eq i32 %5, 0
  br i1 %or.cond.not, label %6, label %28

6:                                                ; preds = %2
  %7 = getelementptr inbounds i8, ptr %1, i64 104
  %8 = load i32, ptr %7, align 8
  %9 = getelementptr inbounds i8, ptr %0, i64 136
  %10 = load i32, ptr %9, align 8
  %11 = sub nsw i32 %8, %10
  %12 = or disjoint i32 %4, 128
  store i32 %12, ptr %3, align 4
  %13 = getelementptr inbounds i8, ptr %0, i64 112
  %14 = load ptr, ptr %13, align 8
  %15 = sext i32 %11 to i64
  %16 = getelementptr inbounds %class.ResourceBitMap, ptr %14, i64 %15
  %17 = getelementptr inbounds i8, ptr %0, i64 128
  %18 = load i32, ptr %17, align 8
  %19 = add nsw i32 %18, 1
  store i32 %19, ptr %17, align 8
  %20 = sext i32 %18 to i64
  %21 = and i64 %20, 63
  %22 = shl nuw i64 1, %21
  %23 = load ptr, ptr %16, align 8
  %24 = lshr i64 %20, 6
  %25 = getelementptr inbounds i64, ptr %23, i64 %24
  %26 = load i64, ptr %25, align 8
  %27 = or i64 %26, %22
  store i64 %27, ptr %25, align 8
  br label %28

28:                                               ; preds = %2, %6
  ret void
}